target datalayout = "e-m:e-p270:32:32-p271:32:32-p272:64:64-i64:64-i128:128-f80:128-n8:16:32:64-S128"
target triple = "x86_64-pc-linux-gnu"

%struct.AVCodecParameters = type { i32, i32, i32, ptr, i32, ptr, i32, i32, i64, i32, i32, i32, i32, i32, i32, %struct.AVRational, %struct.AVRational, i32, i32, i32, i32, i32, i32, i32, %struct.AVChannelLayout, i32, i32, i32, i32, i32, i32 }
%struct.AVRational = type { i32, i32 }
%struct.AVChannelLayout = type { i32, i32, %union.anon, ptr }
%union.anon = type { i64 }
%struct.AVPacket = type { ptr, i64, i64, ptr, i32, i32, i32, ptr, i32, i64, i64, ptr, ptr, %struct.AVRational }
%struct.AVStream = type { ptr, i32, i32, ptr, ptr, %struct.AVRational, i64, i64, i64, i32, i32, %struct.AVRational, ptr, %struct.AVRational, %struct.AVPacket, i32, %struct.AVRational, i32 }
%struct.PayloadContext = type { i8, i8, i8, i32 }

@.str.6 = private unnamed_addr constant [19 x i8] c"packetization-mode\00", align 1
@.str.7 = private unnamed_addr constant [28 x i8] c"RTP Packetization Mode: %d\0A\00", align 1
@.str.8 = private unnamed_addr constant [44 x i8] c"Interleaved RTP mode is not supported yet.\0A\00", align 1
@.str.9 = private unnamed_addr constant [17 x i8] c"profile-level-id\00", align 1
@.str.10 = private unnamed_addr constant [21 x i8] c"sprop-parameter-sets\00", align 1
@.str.11 = private unnamed_addr constant [47 x i8] c"Missing PPS in sprop-parameter-sets, ignoring\0A\00", align 1
@.str.12 = private unnamed_addr constant [32 x i8] c"Extradata set to %p (size: %d)\0A\00", align 1
@.str.13 = private unnamed_addr constant [47 x i8] c"RTP Profile IDC: %x Profile IOP: %x Level: %x\0A\00", align 1

; Function Attrs: nounwind uwtable
define internal void @parse_profile_level_id(ptr noundef %0, ptr noundef %1, ptr noundef %2) #0 {
  %4 = alloca ptr, align 8
  %5 = alloca ptr, align 8
  %6 = alloca ptr, align 8
  %7 = alloca [3 x i8], align 1
  %8 = alloca i8, align 1
  %9 = alloca i8, align 1
  %10 = alloca i8, align 1
  store ptr %0, ptr %4, align 8, !tbaa !4
  store ptr %1, ptr %5, align 8, !tbaa !35
  store ptr %2, ptr %6, align 8, !tbaa !14
  call void @llvm.lifetime.start.p0(i64 3, ptr %7) #9
  call void @llvm.lifetime.start.p0(i64 1, ptr %8) #9
  call void @llvm.lifetime.start.p0(i64 1, ptr %9) #9
  call void @llvm.lifetime.start.p0(i64 1, ptr %10) #9
  %11 = load ptr, ptr %6, align 8, !tbaa !14
  %12 = getelementptr inbounds i8, ptr %11, i64 0
  %13 = load i8, ptr %12, align 1, !tbaa !16
  %14 = getelementptr inbounds [3 x i8], ptr %7, i64 0, i64 0
  store i8 %13, ptr %14, align 1, !tbaa !16
  %15 = load ptr, ptr %6, align 8, !tbaa !14
  %16 = getelementptr inbounds i8, ptr %15, i64 1
  %17 = load i8, ptr %16, align 1, !tbaa !16
  %18 = getelementptr inbounds [3 x i8], ptr %7, i64 0, i64 1
  store i8 %17, ptr %18, align 1, !tbaa !16
  %19 = getelementptr inbounds [3 x i8], ptr %7, i64 0, i64 2
  store i8 0, ptr %19, align 1, !tbaa !16
  %20 = getelementptr inbounds [3 x i8], ptr %7, i64 0, i64 0
  %21 = call i64 @strtol(ptr noundef %20, ptr noundef null, i32 noundef 16) #9
  %22 = trunc i64 %21 to i8
  store i8 %22, ptr %8, align 1, !tbaa !16
  %23 = load ptr, ptr %6, align 8, !tbaa !14
  %24 = getelementptr inbounds i8, ptr %23, i64 2
  %25 = load i8, ptr %24, align 1, !tbaa !16
  %26 = getelementptr inbounds [3 x i8], ptr %7, i64 0, i64 0
  store i8 %25, ptr %26, align 1, !tbaa !16
  %27 = load ptr, ptr %6, align 8, !tbaa !14
  %28 = getelementptr inbounds i8, ptr %27, i64 3
  %29 = load i8, ptr %28, align 1, !tbaa !16
  %30 = getelementptr inbounds [3 x i8], ptr %7, i64 0, i64 1
  store i8 %29, ptr %30, align 1, !tbaa !16
  %31 = getelementptr inbounds [3 x i8], ptr %7, i64 0, i64 0
  %32 = call i64 @strtol(ptr noundef %31, ptr noundef null, i32 noundef 16) #9
  %33 = trunc i64 %32 to i8
  store i8 %33, ptr %9, align 1, !tbaa !16
  %34 = load ptr, ptr %6, align 8, !tbaa !14
  %35 = getelementptr inbounds i8, ptr %34, i64 4
  %36 = load i8, ptr %35, align 1, !tbaa !16
  %37 = getelementptr inbounds [3 x i8], ptr %7, i64 0, i64 0
  store i8 %36, ptr %37, align 1, !tbaa !16
  %38 = load ptr, ptr %6, align 8, !tbaa !14
  %39 = getelementptr inbounds i8, ptr %38, i64 5
  %40 = load i8, ptr %39, align 1, !tbaa !16
  %41 = getelementptr inbounds [3 x i8], ptr %7, i64 0, i64 1
  store i8 %40, ptr %41, align 1, !tbaa !16
  %42 = getelementptr inbounds [3 x i8], ptr %7, i64 0, i64 0
  %43 = call i64 @strtol(ptr noundef %42, ptr noundef null, i32 noundef 16) #9
  %44 = trunc i64 %43 to i8
  store i8 %44, ptr %10, align 1, !tbaa !16
  %45 = load ptr, ptr %4, align 8, !tbaa !4
  %46 = load i8, ptr %8, align 1, !tbaa !16
  %47 = zext i8 %46 to i32
  %48 = load i8, ptr %9, align 1, !tbaa !16
  %49 = zext i8 %48 to i32
  %50 = load i8, ptr %10, align 1, !tbaa !16
  %51 = zext i8 %50 to i32
  call void (ptr, i32, ptr, ...) @av_log(ptr noundef %45, i32 noundef 48, ptr noundef @.str.13, i32 noundef %47, i32 noundef %49, i32 noundef %51)
  %52 = load i8, ptr %8, align 1, !tbaa !16
  %53 = load ptr, ptr %5, align 8, !tbaa !35
  %54 = getelementptr inbounds nuw %struct.PayloadContext, ptr %53, i32 0, i32 0
  store i8 %52, ptr %54, align 4, !tbaa !69
  %55 = load i8, ptr %9, align 1, !tbaa !16
  %56 = load ptr, ptr %5, align 8, !tbaa !35
  %57 = getelementptr inbounds nuw %struct.PayloadContext, ptr %56, i32 0, i32 1
  store i8 %55, ptr %57, align 1, !tbaa !70
  %58 = load i8, ptr %10, align 1, !tbaa !16
  %59 = load ptr, ptr %5, align 8, !tbaa !35
  %60 = getelementptr inbounds nuw %struct.PayloadContext, ptr %59, i32 0, i32 2
  store i8 %58, ptr %60, align 2, !tbaa !71
  call void @llvm.lifetime.end.p0(i64 1, ptr %10) #9
  call void @llvm.lifetime.end.p0(i64 1, ptr %9) #9
  call void @llvm.lifetime.end.p0(i64 1, ptr %8) #9
  call void @llvm.lifetime.end.p0(i64 3, ptr %7) #9
  ret void
}

; Function Attrs: inlinehint nounwind willreturn memory(read) uwtable
define available_externally i32 @atoi(ptr noundef nonnull %0) #5 {
  %2 = alloca ptr, align 8
  store ptr %0, ptr %2, align 8, !tbaa !14
  %3 = load ptr, ptr %2, align 8, !tbaa !14
  %4 = call i64 @strtol(ptr noundef %3, ptr noundef null, i32 noundef 10) #9
  %5 = trunc i64 %4 to i32
  ret i32 %5
}

; Function Attrs: nounwind uwtable
define internal i32 @sdp_parse_fmtp_config_h264(ptr noundef %0, ptr noundef %1, ptr noundef %2, ptr noundef %3, ptr noundef %4) #0 {
  %6 = alloca i32, align 4
  %7 = alloca ptr, align 8
  %8 = alloca ptr, align 8
  %9 = alloca ptr, align 8
  %10 = alloca ptr, align 8
  %11 = alloca ptr, align 8
  %12 = alloca ptr, align 8
  %13 = alloca i32, align 4
  %14 = alloca i32, align 4
  store ptr %0, ptr %7, align 8, !tbaa !4
  store ptr %1, ptr %8, align 8, !tbaa !59
  store ptr %2, ptr %9, align 8, !tbaa !35
  store ptr %3, ptr %10, align 8, !tbaa !14
  store ptr %4, ptr %11, align 8, !tbaa !14
  call void @llvm.lifetime.start.p0(i64 8, ptr %12) #9
  %15 = load ptr, ptr %8, align 8, !tbaa !59
  %16 = getelementptr inbounds nuw %struct.AVStream, ptr %15, i32 0, i32 3
  %17 = load ptr, ptr %16, align 8, !tbaa !61
  store ptr %17, ptr %12, align 8, !tbaa !22
  %18 = load ptr, ptr %10, align 8, !tbaa !14
  %19 = call i32 @strcmp(ptr noundef %18, ptr noundef @.str.6) #10
  %20 = icmp ne i32 %19, 0
  br i1 %20, label %36, label %21

21:                                               ; preds = %5
  %22 = load ptr, ptr %7, align 8, !tbaa !4
  %23 = load ptr, ptr %11, align 8, !tbaa !14
  %24 = call i32 @atoi(ptr noundef %23) #10
  call void (ptr, i32, ptr, ...) @av_log(ptr noundef %22, i32 noundef 48, ptr noundef @.str.7, i32 noundef %24)
  %25 = load ptr, ptr %11, align 8, !tbaa !14
  %26 = call i32 @atoi(ptr noundef %25) #10
  %27 = load ptr, ptr %9, align 8, !tbaa !35
  %28 = getelementptr inbounds nuw %struct.PayloadContext, ptr %27, i32 0, i32 3
  store i32 %26, ptr %28, align 4, !tbaa !65
  %29 = load ptr, ptr %9, align 8, !tbaa !35
  %30 = getelementptr inbounds nuw %struct.PayloadContext, ptr %29, i32 0, i32 3
  %31 = load i32, ptr %30, align 4, !tbaa !65
  %32 = icmp sgt i32 %31, 1
  br i1 %32, label %33, label %35

33:                                               ; preds = %21
  %34 = load ptr, ptr %7, align 8, !tbaa !4
  call void (ptr, i32, ptr, ...) @av_log(ptr noundef %34, i32 noundef 16, ptr noundef @.str.8)
  br label %35

35:                                               ; preds = %33, %21
  br label %92

36:                                               ; preds = %5
  %37 = load ptr, ptr %10, align 8, !tbaa !14
  %38 = call i32 @strcmp(ptr noundef %37, ptr noundef @.str.9) #10
  %39 = icmp ne i32 %38, 0
  br i1 %39, label %49, label %40

40:                                               ; preds = %36
  %41 = load ptr, ptr %11, align 8, !tbaa !14
  %42 = call i64 @strlen(ptr noundef %41) #10
  %43 = icmp eq i64 %42, 6
  br i1 %43, label %44, label %48

44:                                               ; preds = %40
  %45 = load ptr, ptr %7, align 8, !tbaa !4
  %46 = load ptr, ptr %9, align 8, !tbaa !35
  %47 = load ptr, ptr %11, align 8, !tbaa !14
  call void @parse_profile_level_id(ptr noundef %45, ptr noundef %46, ptr noundef %47)
  br label %48

48:                                               ; preds = %44, %40
  br label %91

49:                                               ; preds = %36
  %50 = load ptr, ptr %10, align 8, !tbaa !14
  %51 = call i32 @strcmp(ptr noundef %50, ptr noundef @.str.10) #10
  %52 = icmp ne i32 %51, 0
  br i1 %52, label %90, label %53

53:                                               ; preds = %49
  call void @llvm.lifetime.start.p0(i64 4, ptr %13) #9
  %54 = load ptr, ptr %11, align 8, !tbaa !14
  %55 = load i8, ptr %54, align 1, !tbaa !16
  %56 = sext i8 %55 to i32
  %57 = icmp eq i32 %56, 0
  br i1 %57, label %67, label %58

58:                                               ; preds = %53
  %59 = load ptr, ptr %11, align 8, !tbaa !14
  %60 = load ptr, ptr %11, align 8, !tbaa !14
  %61 = call i64 @strlen(ptr noundef %60) #10
  %62 = sub i64 %61, 1
  %63 = getelementptr inbounds nuw i8, ptr %59, i64 %62
  %64 = load i8, ptr %63, align 1, !tbaa !16
  %65 = sext i8 %64 to i32
  %66 = icmp eq i32 %65, 44
  br i1 %66, label %67, label %69

67:                                               ; preds = %58, %53
  %68 = load ptr, ptr %7, align 8, !tbaa !4
  call void (ptr, i32, ptr, ...) @av_log(ptr noundef %68, i32 noundef 24, ptr noundef @.str.11)
  store i32 0, ptr %6, align 4
  store i32 1, ptr %14, align 4
  br label %89

69:                                               ; preds = %58
  %70 = load ptr, ptr %12, align 8, !tbaa !22
  %71 = getelementptr inbounds nuw %struct.AVCodecParameters, ptr %70, i32 0, i32 4
  store i32 0, ptr %71, align 8, !tbaa !67
  %72 = load ptr, ptr %12, align 8, !tbaa !22
  %73 = getelementptr inbounds nuw %struct.AVCodecParameters, ptr %72, i32 0, i32 3
  call void @av_freep(ptr noundef %73)
  %74 = load ptr, ptr %7, align 8, !tbaa !4
  %75 = load ptr, ptr %12, align 8, !tbaa !22
  %76 = getelementptr inbounds nuw %struct.AVCodecParameters, ptr %75, i32 0, i32 3
  %77 = load ptr, ptr %12, align 8, !tbaa !22
  %78 = getelementptr inbounds nuw %struct.AVCodecParameters, ptr %77, i32 0, i32 4
  %79 = load ptr, ptr %11, align 8, !tbaa !14
  %80 = call i32 @ff_h264_parse_sprop_parameter_sets(ptr noundef %74, ptr noundef %76, ptr noundef %78, ptr noundef %79)
  store i32 %80, ptr %13, align 4, !tbaa !19
  %81 = load ptr, ptr %7, align 8, !tbaa !4
  %82 = load ptr, ptr %12, align 8, !tbaa !22
  %83 = getelementptr inbounds nuw %struct.AVCodecParameters, ptr %82, i32 0, i32 3
  %84 = load ptr, ptr %83, align 8, !tbaa !68
  %85 = load ptr, ptr %12, align 8, !tbaa !22
  %86 = getelementptr inbounds nuw %struct.AVCodecParameters, ptr %85, i32 0, i32 4
  %87 = load i32, ptr %86, align 8, !tbaa !67
  call void (ptr, i32, ptr, ...) @av_log(ptr noundef %81, i32 noundef 48, ptr noundef @.str.12, ptr noundef %84, i32 noundef %87)
  %88 = load i32, ptr %13, align 4, !tbaa !19
  store i32 %88, ptr %6, align 4
  store i32 1, ptr %14, align 4
  br label %89

89:                                               ; preds = %69, %67
  call void @llvm.lifetime.end.p0(i64 4, ptr %13) #9
  br label %93

90:                                               ; preds = %49
  br label %91

91:                                               ; preds = %90, %48
  br label %92

92:                                               ; preds = %91, %35
  store i32 0, ptr %6, align 4
  store i32 1, ptr %14, align 4
  br label %93

93:                                               ; preds = %92, %89
  call void @llvm.lifetime.end.p0(i64 8, ptr %12) #9
  %94 = load i32, ptr %6, align 4
  ret i32 %94
}