; Function Attrs: nounwind uwtable
define internal range(i32 -12, 1) i32 @sdp_parse_fmtp_config_h264(ptr noundef %0, ptr noundef readonly captures(none) %1, ptr noundef writeonly captures(none) %2, ptr noundef readonly captures(none) %3, ptr noundef readonly captures(none) %4) #0 {
  %6 = alloca [3 x i8], align 1
  %7 = getelementptr inbounds nuw i8, ptr %1, i64 16
  %8 = load ptr, ptr %7, align 8, !tbaa !46
  %9 = tail call i32 @strcmp(ptr noundef nonnull dereferenceable(1) %3, ptr noundef nonnull dereferenceable(19) @.str.6) #11
  %.not = icmp eq i32 %9, 0
  br i1 %.not, label %10, label %18

10:                                               ; preds = %5
  %11 = tail call i64 @strtol(ptr noundef nonnull captures(none) %4, ptr noundef null, i32 noundef 10) #10
  %12 = trunc i64 %11 to i32
  tail call void (ptr, i32, ptr, ...) @av_log(ptr noundef %0, i32 noundef 48, ptr noundef nonnull @.str.7, i32 noundef %12) #10
  %13 = tail call i64 @strtol(ptr noundef nonnull captures(none) %4, ptr noundef null, i32 noundef 10) #10
  %14 = trunc i64 %13 to i32
  %15 = getelementptr inbounds nuw i8, ptr %2, i64 4
  store i32 %14, ptr %15, align 4, !tbaa !51
  %16 = icmp sgt i32 %14, 1
  br i1 %16, label %17, label %69

17:                                               ; preds = %10
  tail call void (ptr, i32, ptr, ...) @av_log(ptr noundef %0, i32 noundef 16, ptr noundef nonnull @.str.8) #10
  br label %69

18:                                               ; preds = %5
  %19 = tail call i32 @strcmp(ptr noundef nonnull dereferenceable(1) %3, ptr noundef nonnull dereferenceable(17) @.str.9) #11
  %.not28 = icmp eq i32 %19, 0
  br i1 %.not28, label %20, label %51

20:                                               ; preds = %18
  %21 = tail call i64 @strlen(ptr noundef nonnull dereferenceable(1) %4) #11
  %22 = icmp eq i64 %21, 6
  br i1 %22, label %23, label %69

23:                                               ; preds = %20
  call void @llvm.lifetime.start.p0(i64 3, ptr nonnull %6) #10
  %24 = load i8, ptr %4, align 1, !tbaa !4
  store i8 %24, ptr %6, align 1, !tbaa !4
  %25 = getelementptr inbounds nuw i8, ptr %4, i64 1
  %26 = load i8, ptr %25, align 1, !tbaa !4
  %27 = getelementptr inbounds nuw i8, ptr %6, i64 1
  store i8 %26, ptr %27, align 1, !tbaa !4
  %28 = getelementptr inbounds nuw i8, ptr %6, i64 2
  store i8 0, ptr %28, align 1, !tbaa !4
  %29 = call i64 @strtol(ptr noundef nonnull captures(none) %6, ptr noundef null, i32 noundef 16) #10
  %30 = trunc i64 %29 to i8
  %31 = getelementptr inbounds nuw i8, ptr %4, i64 2
  %32 = load i8, ptr %31, align 1, !tbaa !4
  store i8 %32, ptr %6, align 1, !tbaa !4
  %33 = getelementptr inbounds nuw i8, ptr %4, i64 3
  %34 = load i8, ptr %33, align 1, !tbaa !4
  store i8 %34, ptr %27, align 1, !tbaa !4
  %35 = call i64 @strtol(ptr noundef nonnull captures(none) %6, ptr noundef null, i32 noundef 16) #10
  %36 = trunc i64 %35 to i8
  %37 = getelementptr inbounds nuw i8, ptr %4, i64 4
  %38 = load i8, ptr %37, align 1, !tbaa !4
  store i8 %38, ptr %6, align 1, !tbaa !4
  %39 = getelementptr inbounds nuw i8, ptr %4, i64 5
  %40 = load i8, ptr %39, align 1, !tbaa !4
  store i8 %40, ptr %27, align 1, !tbaa !4
  %41 = call i64 @strtol(ptr noundef nonnull captures(none) %6, ptr noundef null, i32 noundef 16) #10
  %42 = trunc i64 %41 to i8
  %43 = trunc i64 %29 to i32
  %44 = and i32 %43, 255
  %45 = trunc i64 %35 to i32
  %46 = and i32 %45, 255
  %47 = trunc i64 %41 to i32
  %48 = and i32 %47, 255
  tail call void (ptr, i32, ptr, ...) @av_log(ptr noundef %0, i32 noundef 48, ptr noundef nonnull @.str.13, i32 noundef %44, i32 noundef %46, i32 noundef %48) #10
  store i8 %30, ptr %2, align 4, !tbaa !53
  %49 = getelementptr inbounds nuw i8, ptr %2, i64 1
  store i8 %36, ptr %49, align 1, !tbaa !54
  %50 = getelementptr inbounds nuw i8, ptr %2, i64 2
  store i8 %42, ptr %50, align 2, !tbaa !55
  call void @llvm.lifetime.end.p0(i64 3, ptr nonnull %6) #10
  br label %69

51:                                               ; preds = %18
  %52 = tail call i32 @strcmp(ptr noundef nonnull dereferenceable(1) %3, ptr noundef nonnull dereferenceable(21) @.str.10) #11
  %.not29 = icmp eq i32 %52, 0
  br i1 %.not29, label %53, label %69

53:                                               ; preds = %51
  %54 = load i8, ptr %4, align 1, !tbaa !4
  %55 = icmp eq i8 %54, 0
  br i1 %55, label %62, label %56

56:                                               ; preds = %53
  %57 = tail call i64 @strlen(ptr noundef nonnull dereferenceable(1) %4) #11
  %58 = getelementptr i8, ptr %4, i64 %57
  %59 = getelementptr i8, ptr %58, i64 -1
  %60 = load i8, ptr %59, align 1, !tbaa !4
  %61 = icmp eq i8 %60, 44
  br i1 %61, label %62, label %63

62:                                               ; preds = %56, %53
  tail call void (ptr, i32, ptr, ...) @av_log(ptr noundef %0, i32 noundef 24, ptr noundef nonnull @.str.11) #10
  br label %69

63:                                               ; preds = %56
  %64 = getelementptr inbounds nuw i8, ptr %8, i64 24
  store i32 0, ptr %64, align 8, !tbaa !56
  %65 = getelementptr inbounds nuw i8, ptr %8, i64 16
  tail call void @av_freep(ptr noundef nonnull %65) #10
  %66 = tail call i32 @ff_h264_parse_sprop_parameter_sets(ptr noundef %0, ptr noundef nonnull %65, ptr noundef nonnull %64, ptr noundef nonnull %4)
  %67 = load ptr, ptr %65, align 8, !tbaa !57
  %68 = load i32, ptr %64, align 8, !tbaa !56
  tail call void (ptr, i32, ptr, ...) @av_log(ptr noundef %0, i32 noundef 48, ptr noundef nonnull @.str.12, ptr noundef %67, i32 noundef %68) #10
  br label %69

69:                                               ; preds = %17, %10, %51, %20, %23, %62, %63
  %.1 = phi i32 [ 0, %62 ], [ %66, %63 ], [ 0, %23 ], [ 0, %20 ], [ 0, %51 ], [ 0, %10 ], [ 0, %17 ]
  ret i32 %.1
}